target datalayout = "e-m:e-p270:32:32-p271:32:32-p272:64:64-i64:64-i128:128-f80:128-n8:16:32:64-S128"
target triple = "x86_64-pc-linux-gnu"

%struct.AVCodecContext = type { ptr, i32, i32, ptr, i32, i32, ptr, ptr, ptr, i64, i32, i32, ptr, i32, %struct.AVRational, %struct.AVRational, %struct.AVRational, i32, i32, i32, i32, i32, %struct.AVRational, i32, i32, i32, i32, i32, i32, i32, i32, i32, i32, i32, ptr, ptr, i32, float, float, float, float, float, float, float, float, float, i32, i32, i32, i32, i32, i32, i32, i32, i32, i32, i32, i32, ptr, ptr, ptr, i32, i32, i32, i32, i32, i32, i32, i32, i32, i32, %struct.AVChannelLayout, i32, i32, i32, i32, i32, i32, i32, i32, ptr, i32, i32, i32, float, float, i32, i32, i32, i32, i32, ptr, i64, i64, float, float, i32, i32, ptr, ptr, i32, i32, i32, i32, i32, ptr, ptr, ptr, ptr, i32, i32, [8 x i64], i32, i32, i32, i32, i32, i32, i32, ptr, ptr, i32, i32, i32, i32, i32, i32, i32, i32, i32, i32, ptr, ptr, i32, i32, ptr, ptr, ptr, ptr, i32, i32, i64, i32, i32, i64, ptr, i64, ptr, i32, ptr, i32 }
%struct.AVRational = type { i32, i32 }
%struct.AVChannelLayout = type { i32, i32, %union.anon.0, ptr }
%union.anon.0 = type { i64 }
%struct.DfaContext = type { [256 x i32], ptr }

@.str.2 = private unnamed_addr constant [30 x i8] c"Assertion %s failed at %s:%d\0A\00", align 1
@.str.3 = private unnamed_addr constant [64 x i8] c"av_image_check_size(avctx->width, avctx->height, 0, avctx) >= 0\00", align 1
@.str.4 = private unnamed_addr constant [17 x i8] c"libavcodec/dfa.c\00", align 1

; Function Attrs: cold nounwind optsize uwtable
define internal i32 @dfa_decode_init(ptr noundef %0) #0 {
  %2 = alloca i32, align 4
  %3 = alloca ptr, align 8
  %4 = alloca ptr, align 8
  %5 = alloca i32, align 4
  store ptr %0, ptr %3, align 8, !tbaa !4
  call void @llvm.lifetime.start.p0(i64 8, ptr %4) #8
  %6 = load ptr, ptr %3, align 8, !tbaa !4
  %7 = getelementptr inbounds nuw %struct.AVCodecContext, ptr %6, i32 0, i32 6
  %8 = load ptr, ptr %7, align 8, !tbaa !9
  store ptr %8, ptr %4, align 8, !tbaa !29
  %9 = load ptr, ptr %3, align 8, !tbaa !4
  %10 = getelementptr inbounds nuw %struct.AVCodecContext, ptr %9, i32 0, i32 23
  store i32 11, ptr %10, align 8, !tbaa !31
  %11 = load ptr, ptr %3, align 8, !tbaa !4
  %12 = getelementptr inbounds nuw %struct.AVCodecContext, ptr %11, i32 0, i32 18
  %13 = load i32, ptr %12, align 8, !tbaa !32
  %14 = icmp ne i32 %13, 0
  br i1 %14, label %15, label %39

15:                                               ; preds = %1
  %16 = load ptr, ptr %3, align 8, !tbaa !4
  %17 = getelementptr inbounds nuw %struct.AVCodecContext, ptr %16, i32 0, i32 19
  %18 = load i32, ptr %17, align 4, !tbaa !33
  %19 = icmp ne i32 %18, 0
  br i1 %19, label %20, label %39

20:                                               ; preds = %15
  %21 = load ptr, ptr %3, align 8, !tbaa !4
  %22 = getelementptr inbounds nuw %struct.AVCodecContext, ptr %21, i32 0, i32 18
  %23 = load i32, ptr %22, align 8, !tbaa !32
  %24 = load ptr, ptr %3, align 8, !tbaa !4
  %25 = getelementptr inbounds nuw %struct.AVCodecContext, ptr %24, i32 0, i32 19
  %26 = load i32, ptr %25, align 4, !tbaa !33
  %27 = icmp sgt i32 %23, %26
  br i1 %27, label %28, label %32

28:                                               ; preds = %20
  %29 = load ptr, ptr %3, align 8, !tbaa !4
  %30 = getelementptr inbounds nuw %struct.AVCodecContext, ptr %29, i32 0, i32 18
  %31 = load i32, ptr %30, align 8, !tbaa !32
  br label %36

32:                                               ; preds = %20
  %33 = load ptr, ptr %3, align 8, !tbaa !4
  %34 = getelementptr inbounds nuw %struct.AVCodecContext, ptr %33, i32 0, i32 19
  %35 = load i32, ptr %34, align 4, !tbaa !33
  br label %36

36:                                               ; preds = %32, %28
  %37 = phi i32 [ %31, %28 ], [ %35, %32 ]
  %38 = icmp sge i32 %37, 65536
  br i1 %38, label %39, label %40

39:                                               ; preds = %36, %15, %1
  store i32 -1094995529, ptr %2, align 4
  store i32 1, ptr %5, align 4
  br label %72

40:                                               ; preds = %36
  br label %41

41:                                               ; preds = %40
  %42 = load ptr, ptr %3, align 8, !tbaa !4
  %43 = getelementptr inbounds nuw %struct.AVCodecContext, ptr %42, i32 0, i32 18
  %44 = load i32, ptr %43, align 8, !tbaa !32
  %45 = load ptr, ptr %3, align 8, !tbaa !4
  %46 = getelementptr inbounds nuw %struct.AVCodecContext, ptr %45, i32 0, i32 19
  %47 = load i32, ptr %46, align 4, !tbaa !33
  %48 = load ptr, ptr %3, align 8, !tbaa !4
  %49 = call i32 @av_image_check_size(i32 noundef %44, i32 noundef %47, i32 noundef 0, ptr noundef %48)
  %50 = icmp sge i32 %49, 0
  br i1 %50, label %52, label %51

51:                                               ; preds = %41
  call void (ptr, i32, ptr, ...) @av_log(ptr noundef null, i32 noundef 0, ptr noundef @.str.2, ptr noundef @.str.3, ptr noundef @.str.4, i32 noundef 48)
  call void @abort() #9
  unreachable

52:                                               ; preds = %41
  br label %53

53:                                               ; preds = %52
  br label %54

54:                                               ; preds = %53
  %55 = load ptr, ptr %3, align 8, !tbaa !4
  %56 = getelementptr inbounds nuw %struct.AVCodecContext, ptr %55, i32 0, i32 18
  %57 = load i32, ptr %56, align 8, !tbaa !32
  %58 = load ptr, ptr %3, align 8, !tbaa !4
  %59 = getelementptr inbounds nuw %struct.AVCodecContext, ptr %58, i32 0, i32 19
  %60 = load i32, ptr %59, align 4, !tbaa !33
  %61 = mul nsw i32 %57, %60
  %62 = sext i32 %61 to i64
  %63 = call noalias ptr @av_mallocz(i64 noundef %62)
  %64 = load ptr, ptr %4, align 8, !tbaa !29
  %65 = getelementptr inbounds nuw %struct.DfaContext, ptr %64, i32 0, i32 1
  store ptr %63, ptr %65, align 8, !tbaa !34
  %66 = load ptr, ptr %4, align 8, !tbaa !29
  %67 = getelementptr inbounds nuw %struct.DfaContext, ptr %66, i32 0, i32 1
  %68 = load ptr, ptr %67, align 8, !tbaa !34
  %69 = icmp ne ptr %68, null
  br i1 %69, label %71, label %70

70:                                               ; preds = %54
  store i32 -12, ptr %2, align 4
  store i32 1, ptr %5, align 4
  br label %72

71:                                               ; preds = %54
  store i32 0, ptr %2, align 4
  store i32 1, ptr %5, align 4
  br label %72

72:                                               ; preds = %71, %70, %39
  call void @llvm.lifetime.end.p0(i64 8, ptr %4) #8
  %73 = load i32, ptr %2, align 4
  ret i32 %73
}