; Function Attrs: cold nounwind optsize uwtable
define internal range(i32 -1094995529, 1) i32 @dfa_decode_init(ptr noundef initializes((136, 140)) %0) #0 {
  %2 = getelementptr inbounds nuw i8, ptr %0, i64 32
  %3 = load ptr, ptr %2, align 8, !tbaa !4
  %4 = getelementptr inbounds nuw i8, ptr %0, i64 136
  store i32 11, ptr %4, align 8, !tbaa !27
  %5 = getelementptr inbounds nuw i8, ptr %0, i64 112
  %6 = load i32, ptr %5, align 8, !tbaa !28
  %.not = icmp eq i32 %6, 0
  br i1 %.not, label %22, label %7

7:                                                ; preds = %1
  %8 = getelementptr inbounds nuw i8, ptr %0, i64 116
  %9 = load i32, ptr %8, align 4, !tbaa !29
  %.not17 = icmp eq i32 %9, 0
  %. = tail call i32 @llvm.smax.i32(i32 %6, i32 %9)
  %10 = icmp sgt i32 %., 65535
  %or.cond = or i1 %.not17, %10
  br i1 %or.cond, label %22, label %11

11:                                               ; preds = %7
  %12 = tail call i32 @av_image_check_size(i32 noundef %6, i32 noundef %9, i32 noundef 0, ptr noundef nonnull %0) #12
  %13 = icmp sgt i32 %12, -1
  br i1 %13, label %15, label %14

14:                                               ; preds = %11
  tail call void (ptr, i32, ptr, ...) @av_log(ptr noundef null, i32 noundef 0, ptr noundef nonnull @.str.2, ptr noundef nonnull @.str.3, ptr noundef nonnull @.str.4, i32 noundef 48) #12
  tail call void @abort() #13
  unreachable

15:                                               ; preds = %11
  %16 = load i32, ptr %5, align 8, !tbaa !28
  %17 = load i32, ptr %8, align 4, !tbaa !29
  %18 = mul nsw i32 %17, %16
  %19 = sext i32 %18 to i64
  %20 = tail call noalias ptr @av_mallocz(i64 noundef %19) #12
  %21 = getelementptr inbounds nuw i8, ptr %3, i64 1024
  store ptr %20, ptr %21, align 8, !tbaa !30
  %.not18 = icmp eq ptr %20, null
  %.19 = select i1 %.not18, i32 -12, i32 0
  br label %22

22:                                               ; preds = %15, %1, %7
  %.0 = phi i32 [ -1094995529, %7 ], [ -1094995529, %1 ], [ %.19, %15 ]
  ret i32 %.0
}